target datalayout = "e-m:e-p270:32:32-p271:32:32-p272:64:64-i64:64-i128:128-f80:128-n8:16:32:64-S128"
target triple = "x86_64-pc-linux-gnu"

@lre_id_start_table_ascii = dso_local constant [4 x i32] [i32 0, i32 16, i32 -2013265922, i32 134217726], align 16
@lre_id_continue_table_ascii = dso_local constant [4 x i32] [i32 0, i32 67043344, i32 -2013265922, i32 134217726], align 16

; Function Attrs: nounwind uwtable
define internal i32 @lre_js_is_ident_next(i32 noundef %0) #0 {
  %2 = alloca i32, align 4
  %3 = alloca i32, align 4
  store i32 %0, ptr %3, align 4
  %4 = load i32, ptr %3, align 4
  %5 = icmp ult i32 %4, 128
  br i1 %5, label %6, label %16

6:                                                ; preds = %1
  %7 = load i32, ptr %3, align 4
  %8 = ashr i32 %7, 5
  %9 = sext i32 %8 to i64
  %10 = getelementptr [4 x i32], ptr @lre_id_continue_table_ascii, i64 0, i64 %9
  %11 = load i32, ptr %10, align 4
  %12 = load i32, ptr %3, align 4
  %13 = and i32 %12, 31
  %14 = lshr i32 %11, %13
  %15 = and i32 %14, 1
  store i32 %15, ptr %2, align 4
  br label %29

16:                                               ; preds = %1
  %17 = load i32, ptr %3, align 4
  %18 = call i32 @lre_is_id_continue(i32 noundef %17)
  %19 = icmp ne i32 %18, 0
  br i1 %19, label %26, label %20

20:                                               ; preds = %16
  %21 = load i32, ptr %3, align 4
  %22 = icmp eq i32 %21, 8204
  br i1 %22, label %26, label %23

23:                                               ; preds = %20
  %24 = load i32, ptr %3, align 4
  %25 = icmp eq i32 %24, 8205
  br label %26

26:                                               ; preds = %23, %20, %16
  %27 = phi i1 [ true, %20 ], [ true, %16 ], [ %25, %23 ]
  %28 = zext i1 %27 to i32
  store i32 %28, ptr %2, align 4
  br label %29

29:                                               ; preds = %26, %6
  %30 = load i32, ptr %2, align 4
  ret i32 %30
}

; Function Attrs: nounwind uwtable
define internal i32 @lre_js_is_ident_first(i32 noundef %0) #0 {
  %2 = alloca i32, align 4
  %3 = alloca i32, align 4
  store i32 %0, ptr %3, align 4
  %4 = load i32, ptr %3, align 4
  %5 = icmp ult i32 %4, 128
  br i1 %5, label %6, label %16

6:                                                ; preds = %1
  %7 = load i32, ptr %3, align 4
  %8 = ashr i32 %7, 5
  %9 = sext i32 %8 to i64
  %10 = getelementptr [4 x i32], ptr @lre_id_start_table_ascii, i64 0, i64 %9
  %11 = load i32, ptr %10, align 4
  %12 = load i32, ptr %3, align 4
  %13 = and i32 %12, 31
  %14 = lshr i32 %11, %13
  %15 = and i32 %14, 1
  store i32 %15, ptr %2, align 4
  br label %19

16:                                               ; preds = %1
  %17 = load i32, ptr %3, align 4
  %18 = call i32 @lre_is_id_start(i32 noundef %17)
  store i32 %18, ptr %2, align 4
  br label %19

19:                                               ; preds = %16, %6
  %20 = load i32, ptr %2, align 4
  ret i32 %20
}

; Function Attrs: nounwind uwtable
define internal i32 @from_surrogate(i32 noundef %0, i32 noundef %1) #0 {
  %3 = alloca i32, align 4
  %4 = alloca i32, align 4
  store i32 %0, ptr %3, align 4
  store i32 %1, ptr %4, align 4
  %5 = load i32, ptr %3, align 4
  %6 = sub i32 %5, 55296
  %7 = mul i32 1024, %6
  %8 = add i32 65536, %7
  %9 = load i32, ptr %4, align 4
  %10 = sub i32 %9, 56320
  %11 = add i32 %8, %10
  ret i32 %11
}

; Function Attrs: nounwind uwtable
define internal i32 @is_lo_surrogate(i32 noundef %0) #0 {
  %2 = alloca i32, align 4
  store i32 %0, ptr %2, align 4
  %3 = load i32, ptr %2, align 4
  %4 = lshr i32 %3, 10
  %5 = icmp eq i32 %4, 55
  %6 = zext i1 %5 to i32
  ret i32 %6
}

; Function Attrs: nounwind uwtable
define internal i32 @is_hi_surrogate(i32 noundef %0) #0 {
  %2 = alloca i32, align 4
  store i32 %0, ptr %2, align 4
  %3 = load i32, ptr %2, align 4
  %4 = lshr i32 %3, 10
  %5 = icmp eq i32 %4, 54
  %6 = zext i1 %5 to i32
  ret i32 %6
}

; Function Attrs: nounwind uwtable
define internal i32 @re_parse_group_name(ptr noundef %0, i32 noundef %1, ptr noundef %2) #0 {
  %4 = alloca i32, align 4
  %5 = alloca ptr, align 8
  %6 = alloca i32, align 4
  %7 = alloca ptr, align 8
  %8 = alloca ptr, align 8
  %9 = alloca ptr, align 8
  %10 = alloca i32, align 4
  %11 = alloca i32, align 4
  %12 = alloca ptr, align 8
  store ptr %0, ptr %5, align 8
  store i32 %1, ptr %6, align 4
  store ptr %2, ptr %7, align 8
  %13 = load ptr, ptr %7, align 8
  %14 = load ptr, ptr %13, align 8
  store ptr %14, ptr %8, align 8
  %15 = load ptr, ptr %5, align 8
  store ptr %15, ptr %12, align 8
  br label %16

16:                                               ; preds = %110, %3
  %17 = load ptr, ptr %8, align 8
  %18 = load i8, ptr %17, align 1
  %19 = zext i8 %18 to i32
  store i32 %19, ptr %10, align 4
  %20 = load i32, ptr %10, align 4
  %21 = icmp eq i32 %20, 92
  br i1 %21, label %22, label %32

22:                                               ; preds = %16
  %23 = load ptr, ptr %8, align 8
  %24 = getelementptr i8, ptr %23, i32 1
  store ptr %24, ptr %8, align 8
  %25 = load ptr, ptr %8, align 8
  %26 = load i8, ptr %25, align 1
  %27 = zext i8 %26 to i32
  %28 = icmp ne i32 %27, 117
  br i1 %28, label %29, label %30

29:                                               ; preds = %22
  store i32 -1, ptr %4, align 4
  br label %122

30:                                               ; preds = %22
  %31 = call i32 @lre_parse_escape(ptr noundef %8, i32 noundef 2)
  store i32 %31, ptr %10, align 4
  br label %63

32:                                               ; preds = %16
  %33 = load i32, ptr %10, align 4
  %34 = icmp eq i32 %33, 62
  br i1 %34, label %35, label %36

35:                                               ; preds = %32
  br label %111

36:                                               ; preds = %32
  %37 = load i32, ptr %10, align 4
  %38 = icmp uge i32 %37, 128
  br i1 %38, label %39, label %58

39:                                               ; preds = %36
  %40 = load ptr, ptr %8, align 8
  %41 = call i32 @unicode_from_utf8(ptr noundef %40, i32 noundef 6, ptr noundef %8)
  store i32 %41, ptr %10, align 4
  %42 = load i32, ptr %10, align 4
  %43 = call i32 @is_hi_surrogate(i32 noundef %42)
  %44 = icmp ne i32 %43, 0
  br i1 %44, label %45, label %57

45:                                               ; preds = %39
  %46 = load ptr, ptr %8, align 8
  %47 = call i32 @unicode_from_utf8(ptr noundef %46, i32 noundef 6, ptr noundef %9)
  store i32 %47, ptr %11, align 4
  %48 = load i32, ptr %11, align 4
  %49 = call i32 @is_lo_surrogate(i32 noundef %48)
  %50 = icmp ne i32 %49, 0
  br i1 %50, label %51, label %56

51:                                               ; preds = %45
  %52 = load i32, ptr %10, align 4
  %53 = load i32, ptr %11, align 4
  %54 = call i32 @from_surrogate(i32 noundef %52, i32 noundef %53)
  store i32 %54, ptr %10, align 4
  %55 = load ptr, ptr %9, align 8
  store ptr %55, ptr %8, align 8
  br label %56

56:                                               ; preds = %51, %45
  br label %57

57:                                               ; preds = %56, %39
  br label %61

58:                                               ; preds = %36
  %59 = load ptr, ptr %8, align 8
  %60 = getelementptr i8, ptr %59, i32 1
  store ptr %60, ptr %8, align 8
  br label %61

61:                                               ; preds = %58, %57
  br label %62

62:                                               ; preds = %61
  br label %63

63:                                               ; preds = %62, %30
  %64 = load i32, ptr %10, align 4
  %65 = icmp ugt i32 %64, 1114111
  br i1 %65, label %66, label %67

66:                                               ; preds = %63
  store i32 -1, ptr %4, align 4
  br label %122

67:                                               ; preds = %63
  %68 = load ptr, ptr %12, align 8
  %69 = load ptr, ptr %5, align 8
  %70 = icmp eq ptr %68, %69
  br i1 %70, label %71, label %77

71:                                               ; preds = %67
  %72 = load i32, ptr %10, align 4
  %73 = call i32 @lre_js_is_ident_first(i32 noundef %72)
  %74 = icmp ne i32 %73, 0
  br i1 %74, label %76, label %75

75:                                               ; preds = %71
  store i32 -1, ptr %4, align 4
  br label %122

76:                                               ; preds = %71
  br label %83

77:                                               ; preds = %67
  %78 = load i32, ptr %10, align 4
  %79 = call i32 @lre_js_is_ident_next(i32 noundef %78)
  %80 = icmp ne i32 %79, 0
  br i1 %80, label %82, label %81

81:                                               ; preds = %77
  store i32 -1, ptr %4, align 4
  br label %122

82:                                               ; preds = %77
  br label %83

83:                                               ; preds = %82, %76
  %84 = load ptr, ptr %12, align 8
  %85 = load ptr, ptr %5, align 8
  %86 = ptrtoint ptr %84 to i64
  %87 = ptrtoint ptr %85 to i64
  %88 = sub i64 %86, %87
  %89 = add i64 %88, 6
  %90 = add i64 %89, 1
  %91 = load i32, ptr %6, align 4
  %92 = sext i32 %91 to i64
  %93 = icmp sgt i64 %90, %92
  br i1 %93, label %94, label %95

94:                                               ; preds = %83
  store i32 -1, ptr %4, align 4
  br label %122

95:                                               ; preds = %83
  %96 = load i32, ptr %10, align 4
  %97 = icmp ult i32 %96, 128
  br i1 %97, label %98, label %103

98:                                               ; preds = %95
  %99 = load i32, ptr %10, align 4
  %100 = trunc i32 %99 to i8
  %101 = load ptr, ptr %12, align 8
  %102 = getelementptr i8, ptr %101, i32 1
  store ptr %102, ptr %12, align 8
  store i8 %100, ptr %101, align 1
  br label %110

103:                                              ; preds = %95
  %104 = load ptr, ptr %12, align 8
  %105 = load i32, ptr %10, align 4
  %106 = call i32 @unicode_to_utf8(ptr noundef %104, i32 noundef %105)
  %107 = load ptr, ptr %12, align 8
  %108 = sext i32 %106 to i64
  %109 = getelementptr i8, ptr %107, i64 %108
  store ptr %109, ptr %12, align 8
  br label %110

110:                                              ; preds = %103, %98
  br label %16

111:                                              ; preds = %35
  %112 = load ptr, ptr %12, align 8
  %113 = load ptr, ptr %5, align 8
  %114 = icmp eq ptr %112, %113
  br i1 %114, label %115, label %116

115:                                              ; preds = %111
  store i32 -1, ptr %4, align 4
  br label %122

116:                                              ; preds = %111
  %117 = load ptr, ptr %12, align 8
  store i8 0, ptr %117, align 1
  %118 = load ptr, ptr %8, align 8
  %119 = getelementptr i8, ptr %118, i32 1
  store ptr %119, ptr %8, align 8
  %120 = load ptr, ptr %8, align 8
  %121 = load ptr, ptr %7, align 8
  store ptr %120, ptr %121, align 8
  store i32 0, ptr %4, align 4
  br label %122

122:                                              ; preds = %116, %115, %94, %81, %75, %66, %29
  %123 = load i32, ptr %4, align 4
  ret i32 %123
}