; Function Attrs: nounwind uwtable
define internal fastcc noundef i32 @re_parse_group_name(ptr noundef %0, ptr nocapture noundef %1) unnamed_addr #2 {
  %3 = alloca ptr, align 8
  %4 = alloca ptr, align 8
  %5 = load ptr, ptr %1, align 8
  store ptr %5, ptr %3, align 8
  %6 = ptrtoint ptr %0 to i64
  br label %7

7:                                                ; preds = %72, %2
  %8 = phi ptr [ %5, %2 ], [ %.pre, %72 ]
  %.0 = phi ptr [ %0, %2 ], [ %.1, %72 ]
  %9 = load i8, ptr %8, align 1
  %10 = zext i8 %9 to i32
  switch i8 %9, label %16 [
    i8 92, label %11
    i8 62, label %73
  ]

11:                                               ; preds = %7
  %12 = getelementptr i8, ptr %8, i64 1
  store ptr %12, ptr %3, align 8
  %13 = load i8, ptr %12, align 1
  %.not31 = icmp eq i8 %13, 117
  br i1 %.not31, label %14, label %.loopexit

14:                                               ; preds = %11
  %15 = call i32 @lre_parse_escape(ptr noundef nonnull %3, i32 noundef 2)
  br label %29

16:                                               ; preds = %7
  %17 = icmp slt i8 %9, 0
  br i1 %17, label %18, label %.thread

18:                                               ; preds = %16
  %19 = call i32 @unicode_from_utf8(ptr noundef nonnull %8, i32 noundef 6, ptr noundef nonnull %3) #17
  %.mask.i = and i32 %19, -1024
  %.not = icmp eq i32 %.mask.i, 55296
  br i1 %.not, label %20, label %29

20:                                               ; preds = %18
  %21 = load ptr, ptr %3, align 8
  %22 = call i32 @unicode_from_utf8(ptr noundef %21, i32 noundef 6, ptr noundef nonnull %4) #17
  %.mask.i34 = and i32 %22, -1024
  %.not38 = icmp eq i32 %.mask.i34, 56320
  br i1 %.not38, label %23, label %.thread41

23:                                               ; preds = %20
  %24 = shl nuw nsw i32 %19, 10
  %25 = add nsw i32 %24, -56613888
  %26 = add nuw nsw i32 %25, %22
  %27 = load ptr, ptr %4, align 8
  store ptr %27, ptr %3, align 8
  br label %.thread41

.thread:                                          ; preds = %16
  %28 = getelementptr i8, ptr %8, i64 1
  store ptr %28, ptr %3, align 8
  br label %.thread41

29:                                               ; preds = %18, %14
  %.028 = phi i32 [ %15, %14 ], [ %19, %18 ]
  %30 = icmp ugt i32 %.028, 1114111
  br i1 %30, label %.loopexit, label %.thread41

.thread41:                                        ; preds = %20, %23, %.thread, %29
  %.02837 = phi i32 [ %10, %.thread ], [ %.028, %29 ], [ %19, %20 ], [ %26, %23 ]
  %31 = icmp eq ptr %.0, %0
  %32 = icmp ult i32 %.02837, 128
  br i1 %31, label %33, label %44

33:                                               ; preds = %.thread41
  br i1 %32, label %34, label %42

34:                                               ; preds = %33
  %35 = lshr i32 %.02837, 5
  %36 = zext nneg i32 %35 to i64
  %37 = getelementptr [4 x i32], ptr @lre_id_start_table_ascii, i64 0, i64 %36
  %38 = load i32, ptr %37, align 4
  %39 = and i32 %.02837, 31
  %40 = lshr i32 %38, %39
  %41 = and i32 %40, 1
  br label %lre_js_is_ident_first.exit

42:                                               ; preds = %33
  %43 = call i32 @lre_is_id_start(i32 noundef %.02837) #17
  br label %lre_js_is_ident_first.exit

lre_js_is_ident_first.exit:                       ; preds = %34, %42
  %.0.i = phi i32 [ %41, %34 ], [ %43, %42 ]
  %.not33 = icmp eq i32 %.0.i, 0
  br i1 %.not33, label %.loopexit, label %59

44:                                               ; preds = %.thread41
  br i1 %32, label %45, label %53

45:                                               ; preds = %44
  %46 = lshr i32 %.02837, 5
  %47 = zext nneg i32 %46 to i64
  %48 = getelementptr [4 x i32], ptr @lre_id_continue_table_ascii, i64 0, i64 %47
  %49 = load i32, ptr %48, align 4
  %50 = and i32 %.02837, 31
  %51 = lshr i32 %49, %50
  %52 = and i32 %51, 1
  br label %lre_js_is_ident_next.exit

53:                                               ; preds = %44
  %54 = call i32 @lre_is_id_continue(i32 noundef %.02837) #17
  %55 = icmp ne i32 %54, 0
  %56 = and i32 %.02837, 2097150
  %57 = icmp eq i32 %56, 8204
  %narrow.i = or i1 %57, %55
  %58 = zext i1 %narrow.i to i32
  br label %lre_js_is_ident_next.exit

lre_js_is_ident_next.exit:                        ; preds = %45, %53
  %.0.i35 = phi i32 [ %52, %45 ], [ %58, %53 ]
  %.not32 = icmp eq i32 %.0.i35, 0
  br i1 %.not32, label %.loopexit, label %59

59:                                               ; preds = %lre_js_is_ident_next.exit, %lre_js_is_ident_first.exit
  %60 = ptrtoint ptr %.0 to i64
  %reass.sub = sub i64 %60, %6
  %61 = add i64 %reass.sub, 7
  %62 = icmp sgt i64 %61, 128
  br i1 %62, label %.loopexit, label %63

63:                                               ; preds = %59
  %64 = icmp ult i32 %.02837, 128
  br i1 %64, label %65, label %68

65:                                               ; preds = %63
  %66 = trunc i32 %.02837 to i8
  %67 = getelementptr i8, ptr %.0, i64 1
  store i8 %66, ptr %.0, align 1
  br label %72

68:                                               ; preds = %63
  %69 = call i32 @unicode_to_utf8(ptr noundef %.0, i32 noundef %.02837) #17
  %70 = sext i32 %69 to i64
  %71 = getelementptr i8, ptr %.0, i64 %70
  br label %72

72:                                               ; preds = %68, %65
  %.1 = phi ptr [ %67, %65 ], [ %71, %68 ]
  %.pre = load ptr, ptr %3, align 8
  br label %7

73:                                               ; preds = %7
  %74 = icmp eq ptr %.0, %0
  br i1 %74, label %.loopexit, label %75

75:                                               ; preds = %73
  store i8 0, ptr %.0, align 1
  %76 = load ptr, ptr %3, align 8
  %77 = getelementptr i8, ptr %76, i64 1
  store ptr %77, ptr %1, align 8
  br label %.loopexit

.loopexit:                                        ; preds = %59, %lre_js_is_ident_next.exit, %lre_js_is_ident_first.exit, %29, %11, %73, %75
  %.027 = phi i32 [ 0, %75 ], [ -1, %73 ], [ -1, %11 ], [ -1, %29 ], [ -1, %lre_js_is_ident_first.exit ], [ -1, %lre_js_is_ident_next.exit ], [ -1, %59 ]
  ret i32 %.027
}